target datalayout = "e-m:e-p270:32:32-p271:32:32-p272:64:64-i64:64-i128:128-f80:128-n8:16:32:64-S128"
target triple = "x86_64-pc-linux-gnu"

%"struct.ZXing::SymbologyIdentifier" = type { i8, i8, i8, i8 }
%"class.ZXing::ByteArray" = type { %"class.std::vector" }
%"class.std::vector" = type { %"struct.std::_Vector_base" }
%"struct.std::_Vector_base" = type { %"struct.std::_Vector_base<unsigned char, std::allocator<unsigned char>>::_Vector_impl" }
%"struct.std::_Vector_base<unsigned char, std::allocator<unsigned char>>::_Vector_impl" = type { %"struct.std::_Vector_base<unsigned char, std::allocator<unsigned char>>::_Vector_impl_data" }
%"struct.std::_Vector_base<unsigned char, std::allocator<unsigned char>>::_Vector_impl_data" = type { ptr, ptr, ptr }
%"class.ZXing::Result" = type <{ %"class.ZXing::Content", %"class.ZXing::Error", %"class.ZXing::Quadrilateral", %"class.ZXing::ReaderOptions", [4 x i8], %"struct.ZXing::StructuredAppendInfo", i32, [4 x i8], [4 x i8], i32, i8, i8, i8, [5 x i8] }>
%"class.ZXing::Content" = type <{ %"class.ZXing::ByteArray", %"class.std::vector.3", %"struct.ZXing::SymbologyIdentifier", i8, i8, [2 x i8] }>
%"class.std::vector.3" = type { %"struct.std::_Vector_base.4" }
%"struct.std::_Vector_base.4" = type { %"struct.std::_Vector_base<ZXing::Content::Encoding, std::allocator<ZXing::Content::Encoding>>::_Vector_impl" }
%"struct.std::_Vector_base<ZXing::Content::Encoding, std::allocator<ZXing::Content::Encoding>>::_Vector_impl" = type { %"struct.std::_Vector_base<ZXing::Content::Encoding, std::allocator<ZXing::Content::Encoding>>::_Vector_impl_data" }
%"struct.std::_Vector_base<ZXing::Content::Encoding, std::allocator<ZXing::Content::Encoding>>::_Vector_impl_data" = type { ptr, ptr, ptr }
%"class.ZXing::Error" = type <{ %"class.std::__cxx11::basic_string", ptr, i16, i8, [5 x i8] }>
%"class.std::__cxx11::basic_string" = type { %"struct.std::__cxx11::basic_string<char>::_Alloc_hider", i64, %union.anon }
%"struct.std::__cxx11::basic_string<char>::_Alloc_hider" = type { ptr }
%union.anon = type { i64, [8 x i8] }
%"class.ZXing::Quadrilateral" = type { %"struct.std::array" }
%"struct.std::array" = type { [4 x %"struct.ZXing::PointT"] }
%"struct.ZXing::PointT" = type { i32, i32 }
%"class.ZXing::ReaderOptions" = type { i32, i8, i8, i16, %"class.ZXing::Flags" }
%"class.ZXing::Flags" = type { i32 }
%"struct.ZXing::StructuredAppendInfo" = type { i32, i32, %"class.std::__cxx11::basic_string" }
%"struct.std::__detail::_List_node_base" = type { ptr, ptr }
%"struct.std::_List_iterator" = type { ptr }
%"struct.std::__detail::_Scratch_list::_Ptr_cmp" = type { i8 }
%"struct.std::_List_node" = type { %"struct.std::__detail::_List_node_base", %"struct.__gnu_cxx::__aligned_membuf" }
%"struct.__gnu_cxx::__aligned_membuf" = type { [216 x i8] }

; Function Attrs: mustprogress nounwind optsize uwtable
define linkonce_odr noundef ptr @_ZN9__gnu_cxx16__aligned_membufIN5ZXing6ResultEE7_M_addrEv(ptr noundef nonnull align 8 dereferenceable(216) %0) #5 comdat align 2 {
  %2 = alloca ptr, align 8
  store ptr %0, ptr %2, align 8, !tbaa !254
  %3 = load ptr, ptr %2, align 8
  %4 = getelementptr inbounds nuw %"struct.__gnu_cxx::__aligned_membuf", ptr %3, i32 0, i32 0
  ret ptr %4
}

; Function Attrs: mustprogress nounwind optsize uwtable
define linkonce_odr noundef ptr @_ZN9__gnu_cxx16__aligned_membufIN5ZXing6ResultEE6_M_ptrEv(ptr noundef nonnull align 8 dereferenceable(216) %0) #5 comdat align 2 {
  %2 = alloca ptr, align 8
  store ptr %0, ptr %2, align 8, !tbaa !254
  %3 = load ptr, ptr %2, align 8
  %4 = call noundef ptr @_ZN9__gnu_cxx16__aligned_membufIN5ZXing6ResultEE7_M_addrEv(ptr noundef nonnull align 8 dereferenceable(216) %3) #21
  ret ptr %4
}

; Function Attrs: mustprogress nounwind optsize uwtable
define noundef i32 @_ZNK5ZXing6Result13sequenceIndexEv(ptr noundef nonnull align 8 dereferenceable(211) %0) #5 align 2 {
  %2 = alloca ptr, align 8
  store ptr %0, ptr %2, align 8, !tbaa !3
  %3 = load ptr, ptr %2, align 8
  %4 = getelementptr inbounds nuw %"class.ZXing::Result", ptr %3, i32 0, i32 5
  %5 = getelementptr inbounds nuw %"struct.ZXing::StructuredAppendInfo", ptr %4, i32 0, i32 0
  %6 = load i32, ptr %5, align 8, !tbaa !105
  ret i32 %6
}

; Function Attrs: noinline noreturn nounwind optsize uwtable
define linkonce_odr hidden void @__clang_call_terminate(ptr noundef %0) #10 comdat {
  %2 = call ptr @__cxa_begin_catch(ptr %0) #19
  call void @_ZSt9terminatev() #23
  unreachable
}

; Function Attrs: mustprogress nounwind optsize uwtable
define linkonce_odr noundef ptr @_ZNSt10_List_nodeIN5ZXing6ResultEE9_M_valptrEv(ptr noundef nonnull align 8 dereferenceable(232) %0) #5 comdat align 2 {
  %2 = alloca ptr, align 8
  store ptr %0, ptr %2, align 8, !tbaa !252
  %3 = load ptr, ptr %2, align 8
  %4 = getelementptr inbounds nuw %"struct.std::_List_node", ptr %3, i32 0, i32 1
  %5 = call noundef ptr @_ZN9__gnu_cxx16__aligned_membufIN5ZXing6ResultEE6_M_ptrEv(ptr noundef nonnull align 8 dereferenceable(216) %4) #21
  ret ptr %5
}

; Function Attrs: inlinehint mustprogress nounwind optsize uwtable
define internal noundef zeroext i1 @"_ZZN5ZXing29MergeStructuredAppendSequenceERKSt6vectorINS_6ResultESaIS1_EEENK3$_1clERKS1_S8_"(ptr noundef nonnull align 1 dereferenceable(1) %0, ptr noundef nonnull align 8 dereferenceable(211) %1, ptr noundef nonnull align 8 dereferenceable(211) %2) #6 align 2 {
  %4 = alloca ptr, align 8
  %5 = alloca ptr, align 8
  %6 = alloca ptr, align 8
  store ptr %0, ptr %4, align 8, !tbaa !192
  store ptr %1, ptr %5, align 8, !tbaa !3
  store ptr %2, ptr %6, align 8, !tbaa !3
  %7 = load ptr, ptr %5, align 8, !tbaa !3
  %8 = call noundef i32 @_ZNK5ZXing6Result13sequenceIndexEv(ptr noundef nonnull align 8 dereferenceable(211) %7) #20
  %9 = load ptr, ptr %6, align 8, !tbaa !3
  %10 = call noundef i32 @_ZNK5ZXing6Result13sequenceIndexEv(ptr noundef nonnull align 8 dereferenceable(211) %9) #20
  %11 = icmp slt i32 %8, %10
  ret i1 %11
}

; Function Attrs: mustprogress nounwind optsize uwtable
define linkonce_odr noundef nonnull align 8 dereferenceable(211) ptr @_ZNKSt14_List_iteratorIN5ZXing6ResultEEdeEv(ptr noundef nonnull align 8 dereferenceable(8) %0) #5 comdat align 2 personality ptr @__gxx_personality_v0 {
  %2 = alloca ptr, align 8
  store ptr %0, ptr %2, align 8, !tbaa !142
  %3 = load ptr, ptr %2, align 8
  %4 = getelementptr inbounds nuw %"struct.std::_List_iterator", ptr %3, i32 0, i32 0
  %5 = load ptr, ptr %4, align 8, !tbaa !134
  %6 = invoke noundef ptr @_ZNSt10_List_nodeIN5ZXing6ResultEE9_M_valptrEv(ptr noundef nonnull align 8 dereferenceable(232) %5) #20
          to label %7 unwind label %8

7:                                                ; preds = %1
  ret ptr %6

8:                                                ; preds = %1
  %9 = landingpad { ptr, i32 }
          catch ptr null
  %10 = extractvalue { ptr, i32 } %9, 0
  call void @__clang_call_terminate(ptr %10) #23
  unreachable
}

; Function Attrs: mustprogress nounwind optsize uwtable
define linkonce_odr void @_ZNSt14_List_iteratorIN5ZXing6ResultEEC2EPNSt8__detail15_List_node_baseE(ptr noundef nonnull align 8 dereferenceable(8) %0, ptr noundef %1) unnamed_addr #5 comdat align 2 {
  %3 = alloca ptr, align 8
  %4 = alloca ptr, align 8
  store ptr %0, ptr %3, align 8, !tbaa !142
  store ptr %1, ptr %4, align 8, !tbaa !141
  %5 = load ptr, ptr %3, align 8
  %6 = getelementptr inbounds nuw %"struct.std::_List_iterator", ptr %5, i32 0, i32 0
  %7 = load ptr, ptr %4, align 8, !tbaa !141
  store ptr %7, ptr %6, align 8, !tbaa !134
  ret void
}

; Function Attrs: mustprogress optsize uwtable
define internal noundef zeroext i1 @"_ZNSt8__detail13_Scratch_list8_Ptr_cmpISt14_List_iteratorIN5ZXing6ResultEEZNS3_29MergeStructuredAppendSequenceERKSt6vectorIS4_SaIS4_EEE3$_1EclEPNS_15_List_node_baseESE_"(ptr noundef nonnull align 1 dereferenceable(1) %0, ptr noundef %1, ptr noundef %2) #0 align 2 {
  %4 = alloca ptr, align 8
  %5 = alloca ptr, align 8
  %6 = alloca ptr, align 8
  %7 = alloca %"struct.std::_List_iterator", align 8
  %8 = alloca %"struct.std::_List_iterator", align 8
  store ptr %0, ptr %4, align 8, !tbaa !341
  store ptr %1, ptr %5, align 8, !tbaa !141
  store ptr %2, ptr %6, align 8, !tbaa !141
  %9 = load ptr, ptr %4, align 8
  call void @llvm.lifetime.start.p0(i64 8, ptr %7) #19
  %10 = load ptr, ptr %5, align 8, !tbaa !141
  call void @_ZNSt14_List_iteratorIN5ZXing6ResultEEC2EPNSt8__detail15_List_node_baseE(ptr noundef nonnull align 8 dereferenceable(8) %7, ptr noundef %10) #21
  %11 = call noundef nonnull align 8 dereferenceable(211) ptr @_ZNKSt14_List_iteratorIN5ZXing6ResultEEdeEv(ptr noundef nonnull align 8 dereferenceable(8) %7) #21
  call void @llvm.lifetime.start.p0(i64 8, ptr %8) #19
  %12 = load ptr, ptr %6, align 8, !tbaa !141
  call void @_ZNSt14_List_iteratorIN5ZXing6ResultEEC2EPNSt8__detail15_List_node_baseE(ptr noundef nonnull align 8 dereferenceable(8) %8, ptr noundef %12) #21
  %13 = call noundef nonnull align 8 dereferenceable(211) ptr @_ZNKSt14_List_iteratorIN5ZXing6ResultEEdeEv(ptr noundef nonnull align 8 dereferenceable(8) %8) #21
  %14 = call noundef zeroext i1 @"_ZZN5ZXing29MergeStructuredAppendSequenceERKSt6vectorINS_6ResultESaIS1_EEENK3$_1clERKS1_S8_"(ptr noundef nonnull align 1 dereferenceable(1) %9, ptr noundef nonnull align 8 dereferenceable(211) %11, ptr noundef nonnull align 8 dereferenceable(211) %13) #20
  call void @llvm.lifetime.end.p0(i64 8, ptr %8) #19
  call void @llvm.lifetime.end.p0(i64 8, ptr %7) #19
  ret i1 %14
}

; Function Attrs: mustprogress optsize uwtable
define internal void @"_ZNSt8__detail13_Scratch_list5mergeINS0_8_Ptr_cmpISt14_List_iteratorIN5ZXing6ResultEEZNS4_29MergeStructuredAppendSequenceERKSt6vectorIS5_SaIS5_EEE3$_1EEEEvRNS_15_List_node_baseET_"(ptr noundef nonnull align 8 dereferenceable(16) %0, ptr noundef nonnull align 8 dereferenceable(16) %1) #0 align 2 {
  %3 = alloca %"struct.std::__detail::_Scratch_list::_Ptr_cmp", align 1
  %4 = alloca ptr, align 8
  %5 = alloca ptr, align 8
  %6 = alloca ptr, align 8
  %7 = alloca ptr, align 8
  %8 = alloca ptr, align 8
  %9 = alloca ptr, align 8
  %10 = alloca ptr, align 8
  store ptr %0, ptr %4, align 8, !tbaa !132
  store ptr %1, ptr %5, align 8, !tbaa !141
  %11 = load ptr, ptr %4, align 8
  call void @llvm.lifetime.start.p0(i64 8, ptr %6) #19
  %12 = getelementptr inbounds nuw %"struct.std::__detail::_List_node_base", ptr %11, i32 0, i32 0
  %13 = load ptr, ptr %12, align 8, !tbaa !129
  store ptr %13, ptr %6, align 8, !tbaa !141
  call void @llvm.lifetime.start.p0(i64 8, ptr %7) #19
  store ptr %11, ptr %7, align 8, !tbaa !141
  call void @llvm.lifetime.start.p0(i64 8, ptr %8) #19
  %14 = load ptr, ptr %5, align 8, !tbaa !141
  %15 = getelementptr inbounds nuw %"struct.std::__detail::_List_node_base", ptr %14, i32 0, i32 0
  %16 = load ptr, ptr %15, align 8, !tbaa !129
  store ptr %16, ptr %8, align 8, !tbaa !141
  call void @llvm.lifetime.start.p0(i64 8, ptr %9) #19
  %17 = load ptr, ptr %5, align 8, !tbaa !141
  store ptr %17, ptr %9, align 8, !tbaa !141
  br label %18

18:                                               ; preds = %44, %2
  %19 = load ptr, ptr %6, align 8, !tbaa !141
  %20 = load ptr, ptr %7, align 8, !tbaa !141
  %21 = icmp ne ptr %19, %20
  br i1 %21, label %22, label %26

22:                                               ; preds = %18
  %23 = load ptr, ptr %8, align 8, !tbaa !141
  %24 = load ptr, ptr %9, align 8, !tbaa !141
  %25 = icmp ne ptr %23, %24
  br label %26

26:                                               ; preds = %22, %18
  %27 = phi i1 [ false, %18 ], [ %25, %22 ]
  br i1 %27, label %28, label %45

28:                                               ; preds = %26
  %29 = load ptr, ptr %8, align 8, !tbaa !141
  %30 = load ptr, ptr %6, align 8, !tbaa !141
  %31 = call noundef zeroext i1 @"_ZNSt8__detail13_Scratch_list8_Ptr_cmpISt14_List_iteratorIN5ZXing6ResultEEZNS3_29MergeStructuredAppendSequenceERKSt6vectorIS4_SaIS4_EEE3$_1EclEPNS_15_List_node_baseESE_"(ptr noundef nonnull align 1 dereferenceable(1) %3, ptr noundef %29, ptr noundef %30) #20
  br i1 %31, label %32, label %40

32:                                               ; preds = %28
  call void @llvm.lifetime.start.p0(i64 8, ptr %10) #19
  %33 = load ptr, ptr %8, align 8, !tbaa !141
  %34 = getelementptr inbounds nuw %"struct.std::__detail::_List_node_base", ptr %33, i32 0, i32 0
  %35 = load ptr, ptr %34, align 8, !tbaa !129
  store ptr %35, ptr %10, align 8, !tbaa !141
  %36 = load ptr, ptr %6, align 8, !tbaa !141
  %37 = load ptr, ptr %8, align 8, !tbaa !141
  %38 = load ptr, ptr %10, align 8, !tbaa !141
  call void @_ZNSt8__detail15_List_node_base11_M_transferEPS0_S1_(ptr noundef nonnull align 8 dereferenceable(16) %36, ptr noundef %37, ptr noundef %38) #21
  %39 = load ptr, ptr %10, align 8, !tbaa !141
  store ptr %39, ptr %8, align 8, !tbaa !141
  call void @llvm.lifetime.end.p0(i64 8, ptr %10) #19
  br label %44

40:                                               ; preds = %28
  %41 = load ptr, ptr %6, align 8, !tbaa !141
  %42 = getelementptr inbounds nuw %"struct.std::__detail::_List_node_base", ptr %41, i32 0, i32 0
  %43 = load ptr, ptr %42, align 8, !tbaa !129
  store ptr %43, ptr %6, align 8, !tbaa !141
  br label %44

44:                                               ; preds = %40, %32
  br label %18, !llvm.loop !340

45:                                               ; preds = %26
  %46 = load ptr, ptr %8, align 8, !tbaa !141
  %47 = load ptr, ptr %9, align 8, !tbaa !141
  %48 = icmp ne ptr %46, %47
  br i1 %48, label %49, label %52

49:                                               ; preds = %45
  %50 = load ptr, ptr %8, align 8, !tbaa !141
  %51 = load ptr, ptr %9, align 8, !tbaa !141
  call void @_ZNSt8__detail15_List_node_base11_M_transferEPS0_S1_(ptr noundef nonnull align 8 dereferenceable(16) %11, ptr noundef %50, ptr noundef %51) #21
  br label %52

52:                                               ; preds = %49, %45
  call void @llvm.lifetime.end.p0(i64 8, ptr %9) #19
  call void @llvm.lifetime.end.p0(i64 8, ptr %8) #19
  call void @llvm.lifetime.end.p0(i64 8, ptr %7) #19
  call void @llvm.lifetime.end.p0(i64 8, ptr %6) #19
  ret void
}