; Function Attrs: mustprogress nounwind optsize uwtable
define internal fastcc void @"_ZNSt8__detail13_Scratch_list5mergeINS0_8_Ptr_cmpISt14_List_iteratorIN5ZXing6ResultEEZNS4_29MergeStructuredAppendSequenceERKSt6vectorIS5_SaIS5_EEE3$_1EEEEvRNS_15_List_node_baseET_"(ptr noundef nonnull align 8 dereferenceable(16) %0, ptr noundef nonnull align 8 dereferenceable(16) %1) unnamed_addr #13 align 2 personality ptr @__gxx_personality_v0 {
  %3 = load ptr, ptr %0, align 8, !tbaa !94
  %4 = load ptr, ptr %1, align 8, !tbaa !94
  %5 = icmp ne ptr %3, %0
  %6 = icmp ne ptr %4, %1
  %7 = select i1 %5, i1 %6, i1 false
  br i1 %7, label %.lr.ph, label %._crit_edge

.lr.ph:                                           ; preds = %2, %15
  %.023 = phi ptr [ %.1, %15 ], [ %3, %2 ]
  %.01922 = phi ptr [ %.120, %15 ], [ %4, %2 ]
  %8 = getelementptr i8, ptr %.01922, i64 168
  %.val.i = load i32, ptr %8, align 8, !tbaa !80
  %9 = getelementptr i8, ptr %.023, i64 168
  %.val3.i = load i32, ptr %9, align 8, !tbaa !80
  %10 = icmp slt i32 %.val.i, %.val3.i
  br i1 %10, label %11, label %13

11:                                               ; preds = %.lr.ph
  %12 = load ptr, ptr %.01922, align 8, !tbaa !94
  tail call void @_ZNSt8__detail15_List_node_base11_M_transferEPS0_S1_(ptr noundef nonnull align 8 dereferenceable(16) %.023, ptr noundef nonnull %.01922, ptr noundef %12) #29
  br label %15

13:                                               ; preds = %.lr.ph
  %14 = load ptr, ptr %.023, align 8, !tbaa !94
  br label %15

15:                                               ; preds = %13, %11
  %.120 = phi ptr [ %12, %11 ], [ %.01922, %13 ]
  %.1 = phi ptr [ %.023, %11 ], [ %14, %13 ]
  %16 = icmp ne ptr %.1, %0
  %17 = icmp ne ptr %.120, %1
  %18 = and i1 %16, %17
  br i1 %18, label %.lr.ph, label %._crit_edge, !llvm.loop !151

._crit_edge:                                      ; preds = %15, %2
  %.019.lcssa = phi ptr [ %4, %2 ], [ %.120, %15 ]
  %.lcssa = phi i1 [ %6, %2 ], [ %17, %15 ]
  br i1 %.lcssa, label %19, label %20

19:                                               ; preds = %._crit_edge
  tail call void @_ZNSt8__detail15_List_node_base11_M_transferEPS0_S1_(ptr noundef nonnull align 8 dereferenceable(16) %0, ptr noundef %.019.lcssa, ptr noundef nonnull %1) #29
  br label %20

20:                                               ; preds = %19, %._crit_edge
  ret void
}